; Function Attrs: mustprogress uwtable
define hidden void @_ZN8intblast6solver11internalizeEP4expr(ptr noundef nonnull align 8 dereferenceable(420) %0, ptr noundef %1) unnamed_addr #3 align 2 {
  %3 = getelementptr inbounds nuw i8, ptr %0, i64 104
  %4 = load i32, ptr %3, align 8, !tbaa !442
  %.not1.i = icmp eq i32 %4, 0
  br i1 %.not1.i, label %_ZN3euf13th_euf_solver10force_pushEv.exit, label %.lr.ph.i

.lr.ph.i:                                         ; preds = %2, %.lr.ph.i
  %5 = load ptr, ptr %0, align 8, !tbaa !10
  %6 = getelementptr inbounds nuw i8, ptr %5, i64 512
  %7 = load ptr, ptr %6, align 8
  tail call void %7(ptr noundef nonnull align 8 dereferenceable(108) %0)
  %8 = load i32, ptr %3, align 8, !tbaa !442
  %9 = add i32 %8, -1
  store i32 %9, ptr %3, align 8, !tbaa !442
  %.not.i = icmp eq i32 %9, 0
  br i1 %.not.i, label %_ZN3euf13th_euf_solver10force_pushEv.exit, label %.lr.ph.i, !llvm.loop !443

_ZN3euf13th_euf_solver10force_pushEv.exit:        ; preds = %.lr.ph.i, %2
  %10 = getelementptr inbounds nuw i8, ptr %0, i64 48
  %11 = getelementptr inbounds nuw i8, ptr %0, i64 128
  %12 = load ptr, ptr %11, align 8, !tbaa !406
  %13 = tail call noundef zeroext i1 @_ZN3euf15th_internalizer9visit_recER11ast_managerP4exprbb(ptr noundef nonnull align 8 dereferenceable(24) %10, ptr noundef nonnull align 8 dereferenceable(976) %12, ptr noundef %1, i1 noundef zeroext false, i1 noundef zeroext false)
  ret void
}